target datalayout = "e-m:e-p270:32:32-p271:32:32-p272:64:64-i64:64-i128:128-f80:128-n8:16:32:64-S128"
target triple = "x86_64-pc-linux-gnu"

%struct.FFIOContext = type { %struct.AVIOContext, ptr, i32, i32, i64, i64, i64, i64, i32, i32, i32, i64 }
%struct.AVIOContext = type { ptr, ptr, i32, ptr, ptr, ptr, ptr, ptr, ptr, i64, i32, i32, i32, i32, i32, i64, ptr, ptr, ptr, ptr, i32, i32, ptr, ptr, ptr, i32, ptr, i64, i64 }
%struct.MP4DescrParseContext = type { ptr, %struct.FFIOContext, ptr, ptr, i32, i32, i32, i32 }

; Function Attrs: alwaysinline nounwind uwtable
define internal i64 @avio_tell(ptr noundef %0) #2 {
  %2 = alloca ptr, align 8
  store ptr %0, ptr %2, align 8, !tbaa !183
  %3 = load ptr, ptr %2, align 8, !tbaa !183
  %4 = call i64 @avio_seek(ptr noundef %3, i64 noundef 0, i32 noundef 1)
  ret i64 %4
}

; Function Attrs: nounwind uwtable
define internal i32 @parse_mp4_descr_arr(ptr noundef %0, i64 noundef %1, i32 noundef %2) #0 {
  %4 = alloca i32, align 4
  %5 = alloca ptr, align 8
  %6 = alloca i64, align 8
  %7 = alloca i32, align 4
  %8 = alloca i32, align 4
  %9 = alloca i32, align 4
  store ptr %0, ptr %5, align 8, !tbaa !218
  store i64 %1, ptr %6, align 8, !tbaa !90
  store i32 %2, ptr %7, align 4, !tbaa !11
  br label %10

10:                                               ; preds = %28, %3
  %11 = load i32, ptr %7, align 4, !tbaa !11
  %12 = icmp sgt i32 %11, 0
  br i1 %12, label %13, label %29

13:                                               ; preds = %10
  call void @llvm.lifetime.start.p0(i64 4, ptr %8) #12
  %14 = load ptr, ptr %5, align 8, !tbaa !218
  %15 = load i64, ptr %6, align 8, !tbaa !90
  %16 = load i32, ptr %7, align 4, !tbaa !11
  %17 = call i32 @parse_mp4_descr(ptr noundef %14, i64 noundef %15, i32 noundef %16, i32 noundef 0)
  store i32 %17, ptr %8, align 4, !tbaa !11
  %18 = load i32, ptr %8, align 4, !tbaa !11
  %19 = icmp slt i32 %18, 0
  br i1 %19, label %20, label %22

20:                                               ; preds = %13
  %21 = load i32, ptr %8, align 4, !tbaa !11
  store i32 %21, ptr %4, align 4
  store i32 1, ptr %9, align 4
  br label %26

22:                                               ; preds = %13
  %23 = load ptr, ptr %5, align 8, !tbaa !218
  %24 = getelementptr inbounds nuw %struct.MP4DescrParseContext, ptr %23, i32 0, i32 1
  %25 = getelementptr inbounds nuw %struct.FFIOContext, ptr %24, i32 0, i32 0
  call void @update_offsets(ptr noundef %25, ptr noundef %6, ptr noundef %7)
  store i32 0, ptr %9, align 4
  br label %26

26:                                               ; preds = %22, %20
  call void @llvm.lifetime.end.p0(i64 4, ptr %8) #12
  %27 = load i32, ptr %9, align 4
  switch i32 %27, label %32 [
    i32 0, label %28
    i32 1, label %30
  ]

28:                                               ; preds = %26
  br label %10, !llvm.loop !225

29:                                               ; preds = %10
  store i32 0, ptr %4, align 4
  br label %30

30:                                               ; preds = %29, %26
  %31 = load i32, ptr %4, align 4
  ret i32 %31

32:                                               ; preds = %26
  unreachable
}

; Function Attrs: nounwind uwtable
define internal void @update_offsets(ptr noundef %0, ptr noundef %1, ptr noundef %2) #0 {
  %4 = alloca ptr, align 8
  %5 = alloca ptr, align 8
  %6 = alloca ptr, align 8
  %7 = alloca i64, align 8
  store ptr %0, ptr %4, align 8, !tbaa !183
  store ptr %1, ptr %5, align 8, !tbaa !196
  store ptr %2, ptr %6, align 8, !tbaa !213
  call void @llvm.lifetime.start.p0(i64 8, ptr %7) #12
  %8 = load ptr, ptr %4, align 8, !tbaa !183
  %9 = call i64 @avio_tell(ptr noundef %8)
  store i64 %9, ptr %7, align 8, !tbaa !90
  %10 = load i64, ptr %7, align 8, !tbaa !90
  %11 = load ptr, ptr %5, align 8, !tbaa !196
  %12 = load i64, ptr %11, align 8, !tbaa !90
  %13 = sub nsw i64 %10, %12
  %14 = load ptr, ptr %6, align 8, !tbaa !213
  %15 = load i32, ptr %14, align 4, !tbaa !11
  %16 = sext i32 %15 to i64
  %17 = sub nsw i64 %16, %13
  %18 = trunc i64 %17 to i32
  store i32 %18, ptr %14, align 4, !tbaa !11
  %19 = load i64, ptr %7, align 8, !tbaa !90
  %20 = load ptr, ptr %5, align 8, !tbaa !196
  store i64 %19, ptr %20, align 8, !tbaa !90
  call void @llvm.lifetime.end.p0(i64 8, ptr %7) #12
  ret void
}

; Function Attrs: nounwind uwtable
define internal i32 @parse_MP4ODescrTag(ptr noundef %0, i64 noundef %1, i32 noundef %2) #0 {
  %4 = alloca i32, align 4
  %5 = alloca ptr, align 8
  %6 = alloca i64, align 8
  %7 = alloca i32, align 4
  %8 = alloca i32, align 4
  %9 = alloca i32, align 4
  store ptr %0, ptr %5, align 8, !tbaa !218
  store i64 %1, ptr %6, align 8, !tbaa !90
  store i32 %2, ptr %7, align 4, !tbaa !11
  call void @llvm.lifetime.start.p0(i64 4, ptr %8) #12
  %10 = load i32, ptr %7, align 4, !tbaa !11
  %11 = icmp slt i32 %10, 2
  br i1 %11, label %12, label %13

12:                                               ; preds = %3
  store i32 0, ptr %4, align 4
  store i32 1, ptr %9, align 4
  br label %30

13:                                               ; preds = %3
  %14 = load ptr, ptr %5, align 8, !tbaa !218
  %15 = getelementptr inbounds nuw %struct.MP4DescrParseContext, ptr %14, i32 0, i32 1
  %16 = getelementptr inbounds nuw %struct.FFIOContext, ptr %15, i32 0, i32 0
  %17 = call i32 @avio_rb16(ptr noundef %16)
  store i32 %17, ptr %8, align 4, !tbaa !11
  %18 = load i32, ptr %8, align 4, !tbaa !11
  %19 = and i32 %18, 32
  %20 = icmp ne i32 %19, 0
  br i1 %20, label %29, label %21

21:                                               ; preds = %13
  %22 = load ptr, ptr %5, align 8, !tbaa !218
  %23 = getelementptr inbounds nuw %struct.MP4DescrParseContext, ptr %22, i32 0, i32 1
  %24 = getelementptr inbounds nuw %struct.FFIOContext, ptr %23, i32 0, i32 0
  call void @update_offsets(ptr noundef %24, ptr noundef %6, ptr noundef %7)
  %25 = load ptr, ptr %5, align 8, !tbaa !218
  %26 = load i64, ptr %6, align 8, !tbaa !90
  %27 = load i32, ptr %7, align 4, !tbaa !11
  %28 = call i32 @parse_mp4_descr_arr(ptr noundef %25, i64 noundef %26, i32 noundef %27)
  store i32 %28, ptr %4, align 4
  store i32 1, ptr %9, align 4
  br label %30

29:                                               ; preds = %13
  store i32 0, ptr %4, align 4
  store i32 1, ptr %9, align 4
  br label %30

30:                                               ; preds = %29, %21, %12
  call void @llvm.lifetime.end.p0(i64 4, ptr %8) #12
  %31 = load i32, ptr %4, align 4
  ret i32 %31
}