; Function Attrs: nounwind uwtable
define internal fastcc range(i32 -2147483648, 1) i32 @parse_MP4ODescrTag(ptr noundef nonnull %0, i64 noundef %1, i32 noundef range(i32 1, -2147483648) %2) unnamed_addr #0 {
  %4 = icmp samesign ult i32 %2, 2
  br i1 %4, label %parse_mp4_descr_arr.exit, label %5

5:                                                ; preds = %3
  %6 = getelementptr inbounds nuw i8, ptr %0, i64 8
  %7 = tail call i32 @avio_rb16(ptr noundef nonnull %6) #12
  %8 = and i32 %7, 32
  %.not = icmp eq i32 %8, 0
  br i1 %.not, label %9, label %parse_mp4_descr_arr.exit

9:                                                ; preds = %5
  %10 = tail call i64 @avio_seek(ptr noundef nonnull %6, i64 noundef 0, i32 noundef 1) #12
  %.neg.i = sub i64 %1, %10
  %11 = trunc i64 %.neg.i to i32
  %12 = add i32 %2, %11
  %13 = icmp sgt i32 %12, 0
  br i1 %13, label %.lr.ph, label %parse_mp4_descr_arr.exit

.lr.ph:                                           ; preds = %9, %16
  %.01119 = phi i32 [ %19, %16 ], [ %12, %9 ]
  %.01218 = phi i64 [ %17, %16 ], [ %10, %9 ]
  %14 = tail call fastcc i32 @parse_mp4_descr(ptr noundef nonnull %0, i64 noundef %.01218, i32 noundef %.01119, i32 noundef 0)
  %15 = icmp slt i32 %14, 0
  br i1 %15, label %parse_mp4_descr_arr.exit, label %16

16:                                               ; preds = %.lr.ph
  %17 = tail call i64 @avio_seek(ptr noundef nonnull %6, i64 noundef 0, i32 noundef 1) #12
  %.neg.i.i = sub i64 %.01218, %17
  %18 = trunc i64 %.neg.i.i to i32
  %19 = add i32 %.01119, %18
  %20 = icmp sgt i32 %19, 0
  br i1 %20, label %.lr.ph, label %parse_mp4_descr_arr.exit

parse_mp4_descr_arr.exit:                         ; preds = %16, %.lr.ph, %9, %5, %3
  %.0 = phi i32 [ 0, %3 ], [ 0, %5 ], [ 0, %9 ], [ 0, %16 ], [ %14, %.lr.ph ]
  ret i32 %.0
}